target datalayout = "e-m:e-p270:32:32-p271:32:32-p272:64:64-i64:64-i128:128-f80:128-n8:16:32:64-S128"
target triple = "x86_64-pc-linux-gnu"

%struct._packet_info = type { ptr, ptr, i32, i32, %struct.nstime_t, %struct.nstime_t, %struct.nstime_t, i8, ptr, ptr, ptr, ptr, %struct._address, %struct._address, %struct._address, %struct._address, %struct._address, %struct._address, i32, ptr, i8, [3 x i8], %struct.anon, i32, i32, i32, i32, ptr, i8, ptr, ptr, i16, i16, i32, i32, i16, i32, i32, ptr, ptr, ptr, i8, i8, i16, i16, i16, i32, i16, i16, ptr, ptr, ptr, ptr, ptr, i32, i32 }
%struct.nstime_t = type { i64, i32 }
%struct._address = type { i32, i32, ptr, ptr }
%struct.anon = type { i8, [3 x i8] }

@hf_ua3g_command_lcd_line = internal global i32 0, align 4
@hf_ua3g_lcd_line_cmd_lcd_options = internal global i32 0, align 4
@hf_ua3g_lcd_line_cmd_starting_column = internal global i32 0, align 4
@hf_ua3g_lcd_line_cmd_lcd_options_call_timer = internal global i32 0, align 4
@hf_ua3g_lcd_line_cmd_lcd_options_blink = internal global i32 0, align 4
@hf_ua3g_lcd_line_cmd_lcd_options_call_timer_control = internal global i32 0, align 4
@hf_ua3g_lcd_line_cmd_lcd_options_call_timer_display = internal global i32 0, align 4
@hf_ua3g_lcd_line_cmd_lcd_options_time_of_day_display = internal global i32 0, align 4
@hf_ua3g_lcd_line_cmd_lcd_options_suspend_display_refresh = internal global i32 0, align 4
@hf_ua3g_lcd_line_cmd_unused = internal global i32 0, align 4
@hf_ua3g_lcd_line_cmd_ascii_char = internal global i32 0, align 4
@ett_ua3g_param = internal global i32 0, align 4
@ett_ua3g_option = internal global i32 0, align 4
@.str.1218 = private unnamed_addr constant [8 x i8] c"Unknown\00", align 1
@.str.1227 = private unnamed_addr constant [8 x i8] c": %s %d\00", align 1
@.str.1228 = private unnamed_addr constant [1 x i8] zeroinitializer, align 1
@.str.1229 = private unnamed_addr constant [5 x i8] c"\22%s\22\00", align 1
@.str.1230 = private unnamed_addr constant [10 x i8] c"%s %d: %s\00", align 1

; Function Attrs: null_pointer_is_valid sspstrong uwtable
define internal void @decode_lcd_line_cmd(ptr noundef %0, ptr noundef %1, ptr noundef %2, i32 noundef %3, i32 noundef %4) #0 {
  %6 = alloca ptr, align 8
  %7 = alloca ptr, align 8
  %8 = alloca ptr, align 8
  %9 = alloca i32, align 4
  %10 = alloca i32, align 4
  %11 = alloca i8, align 1
  %12 = alloca i8, align 1
  %13 = alloca ptr, align 8
  %14 = alloca ptr, align 8
  %15 = alloca ptr, align 8
  %16 = alloca ptr, align 8
  %17 = alloca ptr, align 8
  %18 = alloca ptr, align 8
  %19 = alloca i32, align 4
  store ptr %0, ptr %6, align 8
  store ptr %1, ptr %7, align 8
  store ptr %2, ptr %8, align 8
  store i32 %3, ptr %9, align 4
  store i32 %4, ptr %10, align 4
  call void @llvm.lifetime.start.p0(i64 1, ptr %11) #8
  call void @llvm.lifetime.start.p0(i64 1, ptr %12) #8
  call void @llvm.lifetime.start.p0(i64 8, ptr %13) #8
  call void @llvm.lifetime.start.p0(i64 8, ptr %14) #8
  %20 = load ptr, ptr %6, align 8
  store ptr %20, ptr %14, align 8
  call void @llvm.lifetime.start.p0(i64 8, ptr %15) #8
  call void @llvm.lifetime.start.p0(i64 8, ptr %16) #8
  call void @llvm.lifetime.start.p0(i64 8, ptr %17) #8
  call void @llvm.lifetime.start.p0(i64 8, ptr %18) #8
  %21 = load ptr, ptr %7, align 8
  %22 = load i32, ptr %9, align 4
  %23 = call zeroext i8 @tvb_get_uint8(ptr noundef %21, i32 noundef %22)
  %24 = zext i8 %23 to i32
  %25 = and i32 %24, 3
  %26 = trunc i32 %25 to i8
  store i8 %26, ptr %11, align 1
  %27 = load ptr, ptr %7, align 8
  %28 = load i32, ptr %9, align 4
  %29 = add i32 %28, 1
  %30 = call zeroext i8 @tvb_get_uint8(ptr noundef %27, i32 noundef %29)
  store i8 %30, ptr %12, align 1
  %31 = load i8, ptr %11, align 1
  %32 = zext i8 %31 to i32
  %33 = call ptr @val_to_str_const(i32 noundef %32, ptr noundef @str_command_lcd_line, ptr noundef @.str.1218)
  store ptr %33, ptr %13, align 8
  %34 = load ptr, ptr %8, align 8
  %35 = getelementptr inbounds nuw %struct._packet_info, ptr %34, i32 0, i32 1
  %36 = load ptr, ptr %35, align 8
  %37 = load ptr, ptr %13, align 8
  %38 = load i8, ptr %12, align 1
  %39 = zext i8 %38 to i32
  call void (ptr, i32, ptr, ...) @col_append_fstr(ptr noundef %36, i32 noundef 25, ptr noundef @.str.1227, ptr noundef %37, i32 noundef %39)
  %40 = load ptr, ptr %14, align 8
  %41 = icmp ne ptr %40, null
  br i1 %41, label %43, label %42

42:                                               ; preds = %5
  store i32 1, ptr %19, align 4
  br label %144

43:                                               ; preds = %5
  %44 = load ptr, ptr %8, align 8
  %45 = getelementptr inbounds nuw %struct._packet_info, ptr %44, i32 0, i32 51
  %46 = load ptr, ptr %45, align 8
  %47 = call noalias ptr @wmem_strbuf_new(ptr noundef %46, ptr noundef @.str.1228)
  store ptr %47, ptr %18, align 8
  %48 = load ptr, ptr %18, align 8
  %49 = load ptr, ptr %8, align 8
  %50 = getelementptr inbounds nuw %struct._packet_info, ptr %49, i32 0, i32 51
  %51 = load ptr, ptr %50, align 8
  %52 = load ptr, ptr %7, align 8
  %53 = load i32, ptr %9, align 4
  %54 = add i32 %53, 2
  %55 = load i32, ptr %10, align 4
  %56 = sub i32 %55, 2
  %57 = call ptr @tvb_format_text(ptr noundef %51, ptr noundef %52, i32 noundef %54, i32 noundef %56)
  call void (ptr, ptr, ...) @wmem_strbuf_append_printf(ptr noundef %48, ptr noundef @.str.1229, ptr noundef %57)
  %58 = load ptr, ptr %14, align 8
  %59 = load ptr, ptr %7, align 8
  %60 = load i32, ptr %9, align 4
  %61 = load i32, ptr %10, align 4
  %62 = load i32, ptr @ett_ua3g_param, align 4
  %63 = load ptr, ptr %13, align 8
  %64 = load i8, ptr %12, align 1
  %65 = zext i8 %64 to i32
  %66 = load ptr, ptr %18, align 8
  %67 = call ptr @wmem_strbuf_get_str(ptr noundef %66)
  %68 = call ptr (ptr, ptr, i32, i32, i32, ptr, ptr, ...) @proto_tree_add_subtree_format(ptr noundef %58, ptr noundef %59, i32 noundef %60, i32 noundef %61, i32 noundef %62, ptr noundef null, ptr noundef @.str.1230, ptr noundef %63, i32 noundef %65, ptr noundef %67)
  store ptr %68, ptr %15, align 8
  %69 = load ptr, ptr %14, align 8
  %70 = load i32, ptr @hf_ua3g_command_lcd_line, align 4
  %71 = load ptr, ptr %7, align 8
  %72 = load i32, ptr %9, align 4
  %73 = call ptr @proto_tree_add_item(ptr noundef %69, i32 noundef %70, ptr noundef %71, i32 noundef %72, i32 noundef 1, i32 noundef 0)
  %74 = load ptr, ptr %15, align 8
  %75 = load i32, ptr @hf_ua3g_lcd_line_cmd_lcd_options, align 4
  %76 = load ptr, ptr %7, align 8
  %77 = load i32, ptr %9, align 4
  %78 = call ptr @proto_tree_add_item(ptr noundef %74, i32 noundef %75, ptr noundef %76, i32 noundef %77, i32 noundef 1, i32 noundef 0)
  store ptr %78, ptr %17, align 8
  %79 = load ptr, ptr %17, align 8
  %80 = load i32, ptr @ett_ua3g_option, align 4
  %81 = call ptr @proto_item_add_subtree(ptr noundef %79, i32 noundef %80)
  store ptr %81, ptr %16, align 8
  %82 = load ptr, ptr %16, align 8
  %83 = load i32, ptr @hf_ua3g_lcd_line_cmd_lcd_options_call_timer, align 4
  %84 = load ptr, ptr %7, align 8
  %85 = load i32, ptr %9, align 4
  %86 = call ptr @proto_tree_add_item(ptr noundef %82, i32 noundef %83, ptr noundef %84, i32 noundef %85, i32 noundef 1, i32 noundef 0)
  %87 = load ptr, ptr %16, align 8
  %88 = load i32, ptr @hf_ua3g_lcd_line_cmd_lcd_options_blink, align 4
  %89 = load ptr, ptr %7, align 8
  %90 = load i32, ptr %9, align 4
  %91 = call ptr @proto_tree_add_item(ptr noundef %87, i32 noundef %88, ptr noundef %89, i32 noundef %90, i32 noundef 1, i32 noundef 0)
  %92 = load ptr, ptr %16, align 8
  %93 = load i32, ptr @hf_ua3g_lcd_line_cmd_lcd_options_call_timer_control, align 4
  %94 = load ptr, ptr %7, align 8
  %95 = load i32, ptr %9, align 4
  %96 = call ptr @proto_tree_add_item(ptr noundef %92, i32 noundef %93, ptr noundef %94, i32 noundef %95, i32 noundef 1, i32 noundef 0)
  %97 = load ptr, ptr %16, align 8
  %98 = load i32, ptr @hf_ua3g_lcd_line_cmd_lcd_options_call_timer_display, align 4
  %99 = load ptr, ptr %7, align 8
  %100 = load i32, ptr %9, align 4
  %101 = call ptr @proto_tree_add_item(ptr noundef %97, i32 noundef %98, ptr noundef %99, i32 noundef %100, i32 noundef 1, i32 noundef 0)
  %102 = load ptr, ptr %16, align 8
  %103 = load i32, ptr @hf_ua3g_lcd_line_cmd_lcd_options_time_of_day_display, align 4
  %104 = load ptr, ptr %7, align 8
  %105 = load i32, ptr %9, align 4
  %106 = call ptr @proto_tree_add_item(ptr noundef %102, i32 noundef %103, ptr noundef %104, i32 noundef %105, i32 noundef 1, i32 noundef 0)
  %107 = load ptr, ptr %16, align 8
  %108 = load i32, ptr @hf_ua3g_lcd_line_cmd_lcd_options_suspend_display_refresh, align 4
  %109 = load ptr, ptr %7, align 8
  %110 = load i32, ptr %9, align 4
  %111 = call ptr @proto_tree_add_item(ptr noundef %107, i32 noundef %108, ptr noundef %109, i32 noundef %110, i32 noundef 1, i32 noundef 0)
  %112 = load i32, ptr %9, align 4
  %113 = add i32 %112, 1
  store i32 %113, ptr %9, align 4
  %114 = load i32, ptr %10, align 4
  %115 = add i32 %114, -1
  store i32 %115, ptr %10, align 4
  %116 = load i8, ptr %11, align 1
  %117 = zext i8 %116 to i32
  %118 = icmp ne i32 %117, 3
  br i1 %118, label %119, label %125

119:                                              ; preds = %43
  %120 = load ptr, ptr %15, align 8
  %121 = load i32, ptr @hf_ua3g_lcd_line_cmd_starting_column, align 4
  %122 = load ptr, ptr %7, align 8
  %123 = load i32, ptr %9, align 4
  %124 = call ptr @proto_tree_add_item(ptr noundef %120, i32 noundef %121, ptr noundef %122, i32 noundef %123, i32 noundef 1, i32 noundef 0)
  br label %131

125:                                              ; preds = %43
  %126 = load ptr, ptr %15, align 8
  %127 = load i32, ptr @hf_ua3g_lcd_line_cmd_unused, align 4
  %128 = load ptr, ptr %7, align 8
  %129 = load i32, ptr %9, align 4
  %130 = call ptr @proto_tree_add_item(ptr noundef %126, i32 noundef %127, ptr noundef %128, i32 noundef %129, i32 noundef 1, i32 noundef 0)
  br label %131

131:                                              ; preds = %125, %119
  %132 = load i32, ptr %9, align 4
  %133 = add i32 %132, 1
  store i32 %133, ptr %9, align 4
  %134 = load i32, ptr %10, align 4
  %135 = add i32 %134, -1
  store i32 %135, ptr %10, align 4
  %136 = load ptr, ptr %15, align 8
  %137 = load i32, ptr @hf_ua3g_lcd_line_cmd_ascii_char, align 4
  %138 = load ptr, ptr %7, align 8
  %139 = load i32, ptr %9, align 4
  %140 = load i32, ptr %10, align 4
  %141 = load ptr, ptr %18, align 8
  %142 = call ptr @wmem_strbuf_get_str(ptr noundef %141)
  %143 = call ptr @proto_tree_add_string(ptr noundef %136, i32 noundef %137, ptr noundef %138, i32 noundef %139, i32 noundef %140, ptr noundef %142)
  store i32 0, ptr %19, align 4
  br label %144

144:                                              ; preds = %131, %42
  call void @llvm.lifetime.end.p0(i64 8, ptr %18) #8
  call void @llvm.lifetime.end.p0(i64 8, ptr %17) #8
  call void @llvm.lifetime.end.p0(i64 8, ptr %16) #8
  call void @llvm.lifetime.end.p0(i64 8, ptr %15) #8
  call void @llvm.lifetime.end.p0(i64 8, ptr %14) #8
  call void @llvm.lifetime.end.p0(i64 8, ptr %13) #8
  call void @llvm.lifetime.end.p0(i64 1, ptr %12) #8
  call void @llvm.lifetime.end.p0(i64 1, ptr %11) #8
  %145 = load i32, ptr %19, align 4
  switch i32 %145, label %147 [
    i32 0, label %146
    i32 1, label %146
  ]

146:                                              ; preds = %144, %144
  ret void

147:                                              ; preds = %144
  unreachable
}