; Function Attrs: null_pointer_is_valid sspstrong uwtable
define internal fastcc void @decode_lcd_line_cmd(ptr noundef %0, ptr noundef %1, ptr noundef readonly captures(none) %2, i32 noundef range(i32 -1, 65535) %3) unnamed_addr #0 {
  %5 = tail call zeroext i8 @tvb_get_uint8(ptr noundef %1, i32 noundef 3)
  %6 = and i8 %5, 3
  %7 = tail call zeroext i8 @tvb_get_uint8(ptr noundef %1, i32 noundef 4)
  %8 = zext nneg i8 %6 to i32
  %9 = tail call ptr @val_to_str_const(i32 noundef %8, ptr noundef nonnull @str_command_lcd_line, ptr noundef nonnull @.str.1218)
  %10 = getelementptr inbounds nuw i8, ptr %2, i64 8
  %11 = load ptr, ptr %10, align 8
  %12 = zext i8 %7 to i32
  tail call void (ptr, i32, ptr, ...) @col_append_fstr(ptr noundef %11, i32 noundef 25, ptr noundef nonnull @.str.1227, ptr noundef %9, i32 noundef %12)
  %.not = icmp eq ptr %0, null
  br i1 %.not, label %46, label %13

13:                                               ; preds = %4
  %14 = getelementptr inbounds nuw i8, ptr %2, i64 408
  %15 = load ptr, ptr %14, align 8
  %16 = tail call noalias ptr @wmem_strbuf_new(ptr noundef %15, ptr noundef nonnull @.str.1228)
  %17 = load ptr, ptr %14, align 8
  %18 = add nsw i32 %3, -2
  %19 = tail call ptr @tvb_format_text(ptr noundef %17, ptr noundef %1, i32 noundef 5, i32 noundef %18)
  tail call void (ptr, ptr, ...) @wmem_strbuf_append_printf(ptr noundef %16, ptr noundef nonnull @.str.1229, ptr noundef %19)
  %20 = load i32, ptr @ett_ua3g_param, align 4
  %21 = tail call ptr @wmem_strbuf_get_str(ptr noundef %16)
  %22 = tail call ptr (ptr, ptr, i32, i32, i32, ptr, ptr, ...) @proto_tree_add_subtree_format(ptr noundef nonnull %0, ptr noundef %1, i32 noundef 3, i32 noundef %3, i32 noundef %20, ptr noundef null, ptr noundef nonnull @.str.1230, ptr noundef %9, i32 noundef %12, ptr noundef %21)
  %23 = load i32, ptr @hf_ua3g_command_lcd_line, align 4
  %24 = tail call ptr @proto_tree_add_item(ptr noundef nonnull %0, i32 noundef %23, ptr noundef %1, i32 noundef 3, i32 noundef 1, i32 noundef 0)
  %25 = load i32, ptr @hf_ua3g_lcd_line_cmd_lcd_options, align 4
  %26 = tail call ptr @proto_tree_add_item(ptr noundef %22, i32 noundef %25, ptr noundef %1, i32 noundef 3, i32 noundef 1, i32 noundef 0)
  %27 = load i32, ptr @ett_ua3g_option, align 4
  %28 = tail call ptr @proto_item_add_subtree(ptr noundef %26, i32 noundef %27)
  %29 = load i32, ptr @hf_ua3g_lcd_line_cmd_lcd_options_call_timer, align 4
  %30 = tail call ptr @proto_tree_add_item(ptr noundef %28, i32 noundef %29, ptr noundef %1, i32 noundef 3, i32 noundef 1, i32 noundef 0)
  %31 = load i32, ptr @hf_ua3g_lcd_line_cmd_lcd_options_blink, align 4
  %32 = tail call ptr @proto_tree_add_item(ptr noundef %28, i32 noundef %31, ptr noundef %1, i32 noundef 3, i32 noundef 1, i32 noundef 0)
  %33 = load i32, ptr @hf_ua3g_lcd_line_cmd_lcd_options_call_timer_control, align 4
  %34 = tail call ptr @proto_tree_add_item(ptr noundef %28, i32 noundef %33, ptr noundef %1, i32 noundef 3, i32 noundef 1, i32 noundef 0)
  %35 = load i32, ptr @hf_ua3g_lcd_line_cmd_lcd_options_call_timer_display, align 4
  %36 = tail call ptr @proto_tree_add_item(ptr noundef %28, i32 noundef %35, ptr noundef %1, i32 noundef 3, i32 noundef 1, i32 noundef 0)
  %37 = load i32, ptr @hf_ua3g_lcd_line_cmd_lcd_options_time_of_day_display, align 4
  %38 = tail call ptr @proto_tree_add_item(ptr noundef %28, i32 noundef %37, ptr noundef %1, i32 noundef 3, i32 noundef 1, i32 noundef 0)
  %39 = load i32, ptr @hf_ua3g_lcd_line_cmd_lcd_options_suspend_display_refresh, align 4
  %40 = tail call ptr @proto_tree_add_item(ptr noundef %28, i32 noundef %39, ptr noundef %1, i32 noundef 3, i32 noundef 1, i32 noundef 0)
  %.not63 = icmp eq i8 %6, 3
  %hf_ua3g_lcd_line_cmd_unused.val = load i32, ptr @hf_ua3g_lcd_line_cmd_unused, align 4
  %hf_ua3g_lcd_line_cmd_starting_column.val = load i32, ptr @hf_ua3g_lcd_line_cmd_starting_column, align 4
  %41 = select i1 %.not63, i32 %hf_ua3g_lcd_line_cmd_unused.val, i32 %hf_ua3g_lcd_line_cmd_starting_column.val
  %42 = tail call ptr @proto_tree_add_item(ptr noundef %22, i32 noundef %41, ptr noundef %1, i32 noundef 4, i32 noundef 1, i32 noundef 0)
  %43 = load i32, ptr @hf_ua3g_lcd_line_cmd_ascii_char, align 4
  %44 = tail call ptr @wmem_strbuf_get_str(ptr noundef %16)
  %45 = tail call ptr @proto_tree_add_string(ptr noundef %22, i32 noundef %43, ptr noundef %1, i32 noundef 5, i32 noundef %18, ptr noundef %44)
  br label %46

46:                                               ; preds = %4, %13
  ret void
}